; Function Attrs: mustprogress uwtable
define internal void @_ZN7rocksdb12_GLOBAL__N_111SkipListRep26InsertWithHintConcurrentlyEPvPS2_(ptr noundef nonnull align 8 dereferenceable(88) %this, ptr noundef %handle, ptr nocapture noundef %hint) unnamed_addr #3 align 2 {
entry:
  %skip_list_ = getelementptr inbounds i8, ptr %this, i64 16
  %0 = load ptr, ptr %hint, align 8
  %cmp.i = icmp eq ptr %0, null
  br i1 %cmp.i, label %if.then.i, label %_ZN7rocksdb14InlineSkipListIRKNS_11MemTableRep13KeyComparatorEE26InsertWithHintConcurrentlyEPKcPPv.exit

if.then.i:                                        ; preds = %entry
  %1 = load i16, ptr %skip_list_, align 8
  %conv.i.i = zext i16 %1 to i64
  %add.i.i = shl nuw nsw i64 %conv.i.i, 3
  %mul.i.i = add nuw nsw i64 %add.i.i, 8
  %mul3.i.i = shl nuw nsw i64 %mul.i.i, 1
  %add4.i.i = add nuw nsw i64 %mul3.i.i, 24
  %call.i.i = tail call noalias noundef nonnull ptr @_Znam(i64 noundef %add4.i.i) #25
  store i32 0, ptr %call.i.i, align 8
  %add.ptr.i.i = getelementptr inbounds i8, ptr %call.i.i, i64 24
  %prev_.i.i = getelementptr inbounds i8, ptr %call.i.i, i64 8
  store ptr %add.ptr.i.i, ptr %prev_.i.i, align 8
  %add.ptr6.i.i = getelementptr inbounds i8, ptr %add.ptr.i.i, i64 %mul.i.i
  %next_.i.i = getelementptr inbounds i8, ptr %call.i.i, i64 16
  store ptr %add.ptr6.i.i, ptr %next_.i.i, align 8
  store ptr %call.i.i, ptr %hint, align 8
  br label %_ZN7rocksdb14InlineSkipListIRKNS_11MemTableRep13KeyComparatorEE26InsertWithHintConcurrentlyEPKcPPv.exit

_ZN7rocksdb14InlineSkipListIRKNS_11MemTableRep13KeyComparatorEE26InsertWithHintConcurrentlyEPKcPPv.exit: ; preds = %entry, %if.then.i
  %splice.0.i = phi ptr [ %call.i.i, %if.then.i ], [ %0, %entry ]
  %call2.i = tail call noundef zeroext i1 @_ZN7rocksdb14InlineSkipListIRKNS_11MemTableRep13KeyComparatorEE6InsertILb1EEEbPKcPNS5_6SpliceEb(ptr noundef nonnull align 8 dereferenceable(48) %skip_list_, ptr noundef %handle, ptr noundef nonnull %splice.0.i, i1 noundef zeroext true)
  ret void
}